target datalayout = "e-m:e-p270:32:32-p271:32:32-p272:64:64-i64:64-i128:128-f80:128-n8:16:32:64-S128"
target triple = "x86_64-pc-linux-gnu"

@hf_hsrp2_md5_auth_tlv = internal global i32 0, align 4
@hf_hsrp2_md5_algorithm = internal global i32 0, align 4
@hf_hsrp2_md5_padding = internal global i32 0, align 4
@hf_hsrp2_md5_flags = internal global i32 0, align 4
@hf_hsrp2_md5_ip_address = internal global i32 0, align 4
@hf_hsrp2_md5_key_id = internal global i32 0, align 4
@hf_hsrp2_md5_auth_data = internal global i32 0, align 4
@ett_hsrp2_md5_auth_tlv = internal global i32 0, align 4
@.str.139 = private unnamed_addr constant [15 x i8] c"Type=%d Len=%d\00", align 1

; Function Attrs: null_pointer_is_valid sspstrong uwtable
define internal void @process_hsrp_md5_tlv_sequence(ptr noundef %0, ptr noundef %1, i32 noundef %2) #0 {
  %4 = alloca ptr, align 8
  %5 = alloca ptr, align 8
  %6 = alloca i32, align 4
  %7 = alloca i8, align 1
  %8 = alloca i8, align 1
  %9 = alloca ptr, align 8
  %10 = alloca ptr, align 8
  store ptr %0, ptr %4, align 8
  store ptr %1, ptr %5, align 8
  store i32 %2, ptr %6, align 4
  call void @llvm.lifetime.start.p0(i64 1, ptr %7) #5
  %11 = load ptr, ptr %4, align 8
  %12 = load i32, ptr %6, align 4
  %13 = call zeroext i8 @tvb_get_uint8(ptr noundef %11, i32 noundef %12)
  store i8 %13, ptr %7, align 1
  call void @llvm.lifetime.start.p0(i64 1, ptr %8) #5
  %14 = load ptr, ptr %4, align 8
  %15 = load i32, ptr %6, align 4
  %16 = add i32 %15, 1
  %17 = call zeroext i8 @tvb_get_uint8(ptr noundef %14, i32 noundef %16)
  store i8 %17, ptr %8, align 1
  call void @llvm.lifetime.start.p0(i64 8, ptr %9) #5
  call void @llvm.lifetime.start.p0(i64 8, ptr %10) #5
  %18 = load ptr, ptr %5, align 8
  %19 = load i32, ptr @hf_hsrp2_md5_auth_tlv, align 4
  %20 = load ptr, ptr %4, align 8
  %21 = load i32, ptr %6, align 4
  %22 = load i8, ptr %8, align 1
  %23 = zext i8 %22 to i32
  %24 = add i32 2, %23
  %25 = load i8, ptr %7, align 1
  %26 = zext i8 %25 to i32
  %27 = load i8, ptr %7, align 1
  %28 = zext i8 %27 to i32
  %29 = load i8, ptr %8, align 1
  %30 = zext i8 %29 to i32
  %31 = call ptr (ptr, i32, ptr, i32, i32, i32, ptr, ...) @proto_tree_add_uint_format_value(ptr noundef %18, i32 noundef %19, ptr noundef %20, i32 noundef %21, i32 noundef %24, i32 noundef %26, ptr noundef @.str.139, i32 noundef %28, i32 noundef %30)
  store ptr %31, ptr %9, align 8
  %32 = load i32, ptr %6, align 4
  %33 = add i32 %32, 2
  store i32 %33, ptr %6, align 4
  %34 = load ptr, ptr %9, align 8
  %35 = load i32, ptr @ett_hsrp2_md5_auth_tlv, align 4
  %36 = call ptr @proto_item_add_subtree(ptr noundef %34, i32 noundef %35)
  store ptr %36, ptr %10, align 8
  %37 = load ptr, ptr %10, align 8
  %38 = load i32, ptr @hf_hsrp2_md5_algorithm, align 4
  %39 = load ptr, ptr %4, align 8
  %40 = load i32, ptr %6, align 4
  %41 = call ptr @proto_tree_add_item(ptr noundef %37, i32 noundef %38, ptr noundef %39, i32 noundef %40, i32 noundef 1, i32 noundef 0)
  %42 = load i32, ptr %6, align 4
  %43 = add i32 %42, 1
  store i32 %43, ptr %6, align 4
  %44 = load ptr, ptr %10, align 8
  %45 = load i32, ptr @hf_hsrp2_md5_padding, align 4
  %46 = load ptr, ptr %4, align 8
  %47 = load i32, ptr %6, align 4
  %48 = call ptr @proto_tree_add_item(ptr noundef %44, i32 noundef %45, ptr noundef %46, i32 noundef %47, i32 noundef 1, i32 noundef 0)
  %49 = load i32, ptr %6, align 4
  %50 = add i32 %49, 1
  store i32 %50, ptr %6, align 4
  %51 = load ptr, ptr %10, align 8
  %52 = load i32, ptr @hf_hsrp2_md5_flags, align 4
  %53 = load ptr, ptr %4, align 8
  %54 = load i32, ptr %6, align 4
  %55 = call ptr @proto_tree_add_item(ptr noundef %51, i32 noundef %52, ptr noundef %53, i32 noundef %54, i32 noundef 2, i32 noundef 0)
  %56 = load i32, ptr %6, align 4
  %57 = add i32 %56, 2
  store i32 %57, ptr %6, align 4
  %58 = load ptr, ptr %10, align 8
  %59 = load i32, ptr @hf_hsrp2_md5_ip_address, align 4
  %60 = load ptr, ptr %4, align 8
  %61 = load i32, ptr %6, align 4
  %62 = call ptr @proto_tree_add_item(ptr noundef %58, i32 noundef %59, ptr noundef %60, i32 noundef %61, i32 noundef 4, i32 noundef 0)
  %63 = load i32, ptr %6, align 4
  %64 = add i32 %63, 4
  store i32 %64, ptr %6, align 4
  %65 = load ptr, ptr %10, align 8
  %66 = load i32, ptr @hf_hsrp2_md5_key_id, align 4
  %67 = load ptr, ptr %4, align 8
  %68 = load i32, ptr %6, align 4
  %69 = call ptr @proto_tree_add_item(ptr noundef %65, i32 noundef %66, ptr noundef %67, i32 noundef %68, i32 noundef 4, i32 noundef 0)
  %70 = load i32, ptr %6, align 4
  %71 = add i32 %70, 4
  store i32 %71, ptr %6, align 4
  %72 = load ptr, ptr %10, align 8
  %73 = load i32, ptr @hf_hsrp2_md5_auth_data, align 4
  %74 = load ptr, ptr %4, align 8
  %75 = load i32, ptr %6, align 4
  %76 = call ptr @proto_tree_add_item(ptr noundef %72, i32 noundef %73, ptr noundef %74, i32 noundef %75, i32 noundef 16, i32 noundef 0)
  call void @llvm.lifetime.end.p0(i64 8, ptr %10) #5
  call void @llvm.lifetime.end.p0(i64 8, ptr %9) #5
  call void @llvm.lifetime.end.p0(i64 1, ptr %8) #5
  call void @llvm.lifetime.end.p0(i64 1, ptr %7) #5
  ret void
}