; Function Attrs: null_pointer_is_valid sspstrong uwtable
define internal fastcc void @process_hsrp_md5_tlv_sequence(ptr noundef %0, ptr noundef %1, i32 noundef %2) unnamed_addr #0 {
  %4 = tail call zeroext i8 @tvb_get_uint8(ptr noundef %0, i32 noundef %2)
  %5 = add i32 %2, 1
  %6 = tail call zeroext i8 @tvb_get_uint8(ptr noundef %0, i32 noundef %5)
  %7 = load i32, ptr @hf_hsrp2_md5_auth_tlv, align 4
  %8 = zext i8 %6 to i32
  %9 = add nuw nsw i32 %8, 2
  %10 = zext i8 %4 to i32
  %11 = tail call ptr (ptr, i32, ptr, i32, i32, i32, ptr, ...) @proto_tree_add_uint_format_value(ptr noundef %1, i32 noundef %7, ptr noundef %0, i32 noundef %2, i32 noundef %9, i32 noundef %10, ptr noundef nonnull @.str.139, i32 noundef %10, i32 noundef %8)
  %12 = add i32 %2, 2
  %13 = load i32, ptr @ett_hsrp2_md5_auth_tlv, align 4
  %14 = tail call ptr @proto_item_add_subtree(ptr noundef %11, i32 noundef %13)
  %15 = load i32, ptr @hf_hsrp2_md5_algorithm, align 4
  %16 = tail call ptr @proto_tree_add_item(ptr noundef %14, i32 noundef %15, ptr noundef %0, i32 noundef %12, i32 noundef 1, i32 noundef 0)
  %17 = add i32 %2, 3
  %18 = load i32, ptr @hf_hsrp2_md5_padding, align 4
  %19 = tail call ptr @proto_tree_add_item(ptr noundef %14, i32 noundef %18, ptr noundef %0, i32 noundef %17, i32 noundef 1, i32 noundef 0)
  %20 = add i32 %2, 4
  %21 = load i32, ptr @hf_hsrp2_md5_flags, align 4
  %22 = tail call ptr @proto_tree_add_item(ptr noundef %14, i32 noundef %21, ptr noundef %0, i32 noundef %20, i32 noundef 2, i32 noundef 0)
  %23 = add i32 %2, 6
  %24 = load i32, ptr @hf_hsrp2_md5_ip_address, align 4
  %25 = tail call ptr @proto_tree_add_item(ptr noundef %14, i32 noundef %24, ptr noundef %0, i32 noundef %23, i32 noundef 4, i32 noundef 0)
  %26 = add i32 %2, 10
  %27 = load i32, ptr @hf_hsrp2_md5_key_id, align 4
  %28 = tail call ptr @proto_tree_add_item(ptr noundef %14, i32 noundef %27, ptr noundef %0, i32 noundef %26, i32 noundef 4, i32 noundef 0)
  %29 = add i32 %2, 14
  %30 = load i32, ptr @hf_hsrp2_md5_auth_data, align 4
  %31 = tail call ptr @proto_tree_add_item(ptr noundef %14, i32 noundef %30, ptr noundef %0, i32 noundef %29, i32 noundef 16, i32 noundef 0)
  ret void
}